; Function Attrs: mustprogress uwtable
define void @_ZNK32pxrInternal_v0_24__pxrReserved__10GfMatrix4f16RemoveScaleShearEv(ptr dead_on_unwind noalias writable sret(%"class.pxrInternal_v0_24__pxrReserved__::GfMatrix4f") align 4 initializes((0, 64)) %0, ptr noundef nonnull readonly align 4 captures(none) dereferenceable(64) %1) local_unnamed_addr #0 align 2 {
  %3 = alloca %"class.pxrInternal_v0_24__pxrReserved__::GfMatrix4f", align 4
  %4 = alloca %"class.pxrInternal_v0_24__pxrReserved__::GfMatrix4f", align 4
  %5 = alloca %"class.pxrInternal_v0_24__pxrReserved__::GfMatrix4f", align 4
  %6 = alloca %"class.pxrInternal_v0_24__pxrReserved__::GfVec3f", align 4
  %7 = alloca %"class.pxrInternal_v0_24__pxrReserved__::GfVec3f", align 4
  %8 = alloca %"class.pxrInternal_v0_24__pxrReserved__::GfMatrix4f", align 4
  %9 = call noundef zeroext i1 @_ZNK32pxrInternal_v0_24__pxrReserved__10GfMatrix4f6FactorEPS0_PNS_7GfVec3fES1_S3_S1_f(ptr noundef nonnull align 4 dereferenceable(64) %1, ptr noundef nonnull %3, ptr noundef nonnull %6, ptr noundef nonnull %4, ptr noundef nonnull %7, ptr noundef nonnull %5, float noundef 0x3EE4F8B580000000)
  br i1 %9, label %11, label %10

10:                                               ; preds = %2
  tail call void @llvm.memcpy.p0.p0.i64(ptr noundef nonnull align 4 dereferenceable(64) %0, ptr noundef nonnull align 4 dereferenceable(64) %1, i64 64, i1 false)
  br label %28

11:                                               ; preds = %2
  %12 = call noundef zeroext i1 @_ZN32pxrInternal_v0_24__pxrReserved__10GfMatrix4f14OrthonormalizeEb(ptr noundef nonnull align 4 dereferenceable(64) %4, i1 noundef zeroext true)
  %13 = getelementptr inbounds nuw i8, ptr %8, i64 4
  %14 = getelementptr inbounds nuw i8, ptr %8, i64 20
  %15 = getelementptr inbounds nuw i8, ptr %8, i64 24
  %16 = getelementptr inbounds nuw i8, ptr %8, i64 40
  %17 = getelementptr inbounds nuw i8, ptr %8, i64 44
  %18 = getelementptr inbounds nuw i8, ptr %8, i64 60
  store float 1.000000e+00, ptr %8, align 4
  call void @llvm.memset.p0.i64(ptr noundef nonnull align 4 dereferenceable(16) %13, i8 0, i64 16, i1 false)
  store float 1.000000e+00, ptr %14, align 4
  call void @llvm.memset.p0.i64(ptr noundef nonnull align 4 dereferenceable(16) %15, i8 0, i64 16, i1 false)
  store float 1.000000e+00, ptr %16, align 4
  store float 0.000000e+00, ptr %17, align 4
  %19 = load float, ptr %7, align 4
  %20 = getelementptr inbounds nuw i8, ptr %8, i64 48
  store float %19, ptr %20, align 4
  %21 = getelementptr inbounds nuw i8, ptr %7, i64 4
  %22 = load float, ptr %21, align 4
  %23 = getelementptr inbounds nuw i8, ptr %8, i64 52
  store float %22, ptr %23, align 4
  %24 = getelementptr inbounds nuw i8, ptr %7, i64 8
  %25 = load float, ptr %24, align 4
  %26 = getelementptr inbounds nuw i8, ptr %8, i64 56
  store float %25, ptr %26, align 4
  store float 1.000000e+00, ptr %18, align 4
  call void @llvm.memcpy.p0.p0.i64(ptr noundef nonnull align 4 dereferenceable(64) %0, ptr noundef nonnull align 4 dereferenceable(64) %4, i64 64, i1 false)
  %27 = call noundef nonnull align 4 dereferenceable(64) ptr @_ZN32pxrInternal_v0_24__pxrReserved__10GfMatrix4fmLERKS0_(ptr noundef nonnull align 4 dereferenceable(64) %0, ptr noundef nonnull align 4 dereferenceable(64) %8)
  br label %28

28:                                               ; preds = %11, %10
  ret void
}